target datalayout = "e-m:e-p270:32:32-p271:32:32-p272:64:64-i64:64-i128:128-f80:128-n8:16:32:64-S128"
target triple = "x86_64-pc-linux-gnu"

; Function Attrs: nounwind uwtable
define ptr @BIO_ptr_ctrl(ptr noundef %0, i32 noundef %1, i64 noundef %2) #0 {
  %4 = alloca ptr, align 8
  %5 = alloca ptr, align 8
  %6 = alloca i32, align 4
  %7 = alloca i64, align 8
  %8 = alloca ptr, align 8
  %9 = alloca i32, align 4
  store ptr %0, ptr %5, align 8, !tbaa !10
  store i32 %1, ptr %6, align 4, !tbaa !26
  store i64 %2, ptr %7, align 8, !tbaa !34
  call void @llvm.lifetime.start.p0(i64 8, ptr %8) #5
  store ptr null, ptr %8, align 8, !tbaa !25
  %10 = load ptr, ptr %5, align 8, !tbaa !10
  %11 = load i32, ptr %6, align 4, !tbaa !26
  %12 = load i64, ptr %7, align 8, !tbaa !34
  %13 = call i64 @BIO_ctrl(ptr noundef %10, i32 noundef %11, i64 noundef %12, ptr noundef %8)
  %14 = icmp sle i64 %13, 0
  br i1 %14, label %15, label %16

15:                                               ; preds = %3
  store ptr null, ptr %4, align 8
  store i32 1, ptr %9, align 4
  br label %18

16:                                               ; preds = %3
  %17 = load ptr, ptr %8, align 8, !tbaa !25
  store ptr %17, ptr %4, align 8
  store i32 1, ptr %9, align 4
  br label %18

18:                                               ; preds = %16, %15
  call void @llvm.lifetime.end.p0(i64 8, ptr %8) #5
  %19 = load ptr, ptr %4, align 8
  ret ptr %19
}