; Function Attrs: nounwind uwtable
define ptr @BIO_ptr_ctrl(ptr noundef %0, i32 noundef %1, i64 noundef %2) local_unnamed_addr #0 {
  %4 = alloca ptr, align 8
  call void @llvm.lifetime.start.p0(i64 8, ptr nonnull %4) #14
  store ptr null, ptr %4, align 8, !tbaa !54
  %5 = call i64 @BIO_ctrl(ptr noundef %0, i32 noundef %1, i64 noundef %2, ptr noundef nonnull %4)
  %6 = icmp slt i64 %5, 1
  %7 = load ptr, ptr %4, align 8
  %.0 = select i1 %6, ptr null, ptr %7
  call void @llvm.lifetime.end.p0(i64 8, ptr nonnull %4) #14
  ret ptr %.0
}